target datalayout = "e-m:e-p270:32:32-p271:32:32-p272:64:64-i64:64-i128:128-f80:128-n8:16:32:64-S128"
target triple = "x86_64-pc-linux-gnu"

%"class.llvm::StringRef" = type { ptr, i64 }
%"class.llvm::InstrProfLookupTrait" = type <{ %"class.std::vector.210", i32, i32, i32, [4 x i8] }>
%"class.std::vector.210" = type { %"struct.std::_Vector_base.211" }
%"struct.std::_Vector_base.211" = type { %"struct.std::_Vector_base<llvm::NamedInstrProfRecord, std::allocator<llvm::NamedInstrProfRecord>>::_Vector_impl" }
%"struct.std::_Vector_base<llvm::NamedInstrProfRecord, std::allocator<llvm::NamedInstrProfRecord>>::_Vector_impl" = type { %"struct.std::_Vector_base<llvm::NamedInstrProfRecord, std::allocator<llvm::NamedInstrProfRecord>>::_Vector_impl_data" }
%"struct.std::_Vector_base<llvm::NamedInstrProfRecord, std::allocator<llvm::NamedInstrProfRecord>>::_Vector_impl_data" = type { ptr, ptr, ptr }
%"class.llvm::MD5" = type { %struct.anon.434 }
%struct.anon.434 = type { i32, i32, i32, i32, i32, i32, [64 x i8], [16 x i32] }
%"struct.llvm::MD5::MD5Result" = type { %"struct.std::array.435" }
%"struct.std::array.435" = type { [16 x i8] }
%"struct.llvm::support::detail::packed_endian_specific_integral" = type { %struct.anon.436 }
%struct.anon.436 = type { [8 x i8] }

; Function Attrs: mustprogress nounwind uwtable
define linkonce_odr hidden noundef i64 @_ZN4llvm8byteswapImvEET_S1_(i64 noundef %0) #0 comdat {
  %2 = alloca i64, align 8
  %3 = alloca i64, align 8
  store i64 %0, ptr %2, align 8
  %4 = load i64, ptr %2, align 8
  store i64 %4, ptr %3, align 8
  %5 = load i64, ptr %3, align 8
  %6 = call i64 @llvm.bswap.i64(i64 %5)
  ret i64 %6
}

; Function Attrs: mustprogress nounwind uwtable
define linkonce_odr hidden noundef i64 @_ZN4llvm3sys15getSwappedBytesEm(i64 noundef %0) #0 comdat {
  %2 = alloca i64, align 8
  store i64 %0, ptr %2, align 8
  %3 = load i64, ptr %2, align 8
  %4 = call noundef i64 @_ZN4llvm8byteswapImvEET_S1_(i64 noundef %3) #14
  ret i64 %4
}

; Function Attrs: mustprogress nounwind uwtable
define linkonce_odr hidden void @_ZN4llvm3sys13swapByteOrderImEEvRT_(ptr noundef nonnull align 8 dereferenceable(8) %0) #0 comdat {
  %2 = alloca ptr, align 8
  store ptr %0, ptr %2, align 8
  %3 = load ptr, ptr %2, align 8
  %4 = load i64, ptr %3, align 8
  %5 = call noundef i64 @_ZN4llvm3sys15getSwappedBytesEm(i64 noundef %4)
  %6 = load ptr, ptr %2, align 8
  store i64 %5, ptr %6, align 8
  ret void
}

; Function Attrs: mustprogress nounwind uwtable
define linkonce_odr hidden noundef i64 @_ZN4llvm7support6endian9byte_swapImEET_S3_NS_10endiannessE(i64 noundef %0, i32 noundef %1) #0 comdat {
  %3 = alloca i64, align 8
  %4 = alloca i32, align 4
  store i64 %0, ptr %3, align 8
  store i32 %1, ptr %4, align 4
  %5 = load i32, ptr %4, align 4
  %6 = icmp ne i32 %5, 1
  br i1 %6, label %7, label %8

7:                                                ; preds = %2
  call void @_ZN4llvm3sys13swapByteOrderImEEvRT_(ptr noundef nonnull align 8 dereferenceable(8) %3)
  br label %8

8:                                                ; preds = %7, %2
  %9 = load i64, ptr %3, align 8
  ret i64 %9
}

; Function Attrs: mustprogress nounwind uwtable
define linkonce_odr hidden noundef i64 @_ZN4llvm7support6endian4readImLm1EEET_PKvNS_10endiannessE(ptr noundef %0, i32 noundef %1) #0 comdat {
  %3 = alloca ptr, align 8
  %4 = alloca i32, align 4
  %5 = alloca i64, align 8
  store ptr %0, ptr %3, align 8
  store i32 %1, ptr %4, align 4
  %6 = load ptr, ptr %3, align 8
  call void @llvm.assume(i1 true) [ "align"(ptr %6, i64 1) ]
  call void @llvm.memcpy.p0.p0.i64(ptr align 8 %5, ptr align 1 %6, i64 8, i1 false)
  %7 = load i64, ptr %5, align 8
  %8 = load i32, ptr %4, align 4
  %9 = call noundef i64 @_ZN4llvm7support6endian9byte_swapImEET_S3_NS_10endiannessE(i64 noundef %7, i32 noundef %8)
  ret i64 %9
}

; Function Attrs: mustprogress nounwind uwtable
define linkonce_odr hidden noundef i64 @_ZN4llvm7support6endian4readImLNS_10endiannessE1ELm1EEET_PKv(ptr noundef %0) #0 comdat {
  %2 = alloca ptr, align 8
  store ptr %0, ptr %2, align 8
  %3 = load ptr, ptr %2, align 8
  %4 = call noundef i64 @_ZN4llvm7support6endian4readImLm1EEET_PKvNS_10endiannessE(ptr noundef %3, i32 noundef 1)
  ret i64 %4
}

; Function Attrs: mustprogress nounwind uwtable
define linkonce_odr hidden noundef i64 @_ZNK4llvm7support6detail31packed_endian_specific_integralImLNS_10endiannessE1ELm1ELm1EEcvmEv(ptr noundef nonnull align 1 dereferenceable(8) %0) #0 comdat align 2 {
  %2 = alloca ptr, align 8
  store ptr %0, ptr %2, align 8
  %3 = load ptr, ptr %2, align 8
  %4 = getelementptr inbounds nuw %"struct.llvm::support::detail::packed_endian_specific_integral", ptr %3, i32 0, i32 0
  %5 = getelementptr inbounds nuw %struct.anon.436, ptr %4, i32 0, i32 0
  %6 = getelementptr inbounds [8 x i8], ptr %5, i64 0, i64 0
  %7 = call noundef i64 @_ZN4llvm7support6endian4readImLNS_10endiannessE1ELm1EEET_PKv(ptr noundef %6)
  ret i64 %7
}

; Function Attrs: mustprogress nounwind uwtable
define linkonce_odr hidden noundef ptr @_ZNSt14__array_traitsIhLm16EE6_S_ptrERA16_Kh(ptr noundef nonnull align 1 dereferenceable(16) %0) #0 comdat align 2 {
  %2 = alloca ptr, align 8
  store ptr %0, ptr %2, align 8
  %3 = load ptr, ptr %2, align 8
  %4 = getelementptr inbounds [16 x i8], ptr %3, i64 0, i64 0
  ret ptr %4
}

; Function Attrs: mustprogress nounwind uwtable
define linkonce_odr hidden noundef i64 @_ZN4llvm7support6endian4readImLNS_10endiannessE1EEET_PKv(ptr noundef %0) #0 comdat {
  %2 = alloca ptr, align 8
  store ptr %0, ptr %2, align 8
  %3 = load ptr, ptr %2, align 8
  %4 = call noundef i64 @_ZNK4llvm7support6detail31packed_endian_specific_integralImLNS_10endiannessE1ELm1ELm1EEcvmEv(ptr noundef nonnull align 1 dereferenceable(8) %3)
  ret i64 %4
}

; Function Attrs: mustprogress nounwind uwtable
define linkonce_odr hidden noundef ptr @_ZNKSt5arrayIhLm16EE4dataEv(ptr noundef nonnull align 1 dereferenceable(16) %0) #0 comdat align 2 {
  %2 = alloca ptr, align 8
  store ptr %0, ptr %2, align 8
  %3 = load ptr, ptr %2, align 8
  %4 = getelementptr inbounds nuw %"struct.std::array.435", ptr %3, i32 0, i32 0
  %5 = call noundef ptr @_ZNSt14__array_traitsIhLm16EE6_S_ptrERA16_Kh(ptr noundef nonnull align 1 dereferenceable(16) %4) #14
  ret ptr %5
}

; Function Attrs: mustprogress nounwind uwtable
define linkonce_odr hidden noundef i64 @_ZNK4llvm3MD59MD5Result3lowEv(ptr noundef nonnull align 1 dereferenceable(16) %0) #0 comdat align 2 {
  %2 = alloca ptr, align 8
  store ptr %0, ptr %2, align 8
  %3 = load ptr, ptr %2, align 8
  %4 = call noundef ptr @_ZNKSt5arrayIhLm16EE4dataEv(ptr noundef nonnull align 1 dereferenceable(16) %3) #14
  %5 = call noundef i64 @_ZN4llvm7support6endian4readImLNS_10endiannessE1EEET_PKv(ptr noundef %4)
  ret i64 %5
}

; Function Attrs: mustprogress nounwind uwtable
define linkonce_odr hidden noundef i64 @_ZN4llvm7MD5HashENS_9StringRefE(ptr %0, i64 %1) #0 comdat {
  %3 = alloca %"class.llvm::StringRef", align 8
  %4 = alloca %"class.llvm::MD5", align 4
  %5 = alloca %"class.llvm::StringRef", align 8
  %6 = alloca %"struct.llvm::MD5::MD5Result", align 1
  %7 = getelementptr inbounds nuw { ptr, i64 }, ptr %3, i32 0, i32 0
  store ptr %0, ptr %7, align 8
  %8 = getelementptr inbounds nuw { ptr, i64 }, ptr %3, i32 0, i32 1
  store i64 %1, ptr %8, align 8
  call void @_ZN4llvm3MD5C1Ev(ptr noundef nonnull align 4 dereferenceable(152) %4)
  call void @llvm.memcpy.p0.p0.i64(ptr align 8 %5, ptr align 8 %3, i64 16, i1 false)
  %9 = getelementptr inbounds nuw { ptr, i64 }, ptr %5, i32 0, i32 0
  %10 = load ptr, ptr %9, align 8
  %11 = getelementptr inbounds nuw { ptr, i64 }, ptr %5, i32 0, i32 1
  %12 = load i64, ptr %11, align 8
  call void @_ZN4llvm3MD56updateENS_9StringRefE(ptr noundef nonnull align 4 dereferenceable(152) %4, ptr %10, i64 %12)
  call void @_ZN4llvm3MD55finalERNS0_9MD5ResultE(ptr noundef nonnull align 4 dereferenceable(152) %4, ptr noundef nonnull align 1 dereferenceable(16) %6)
  %13 = call noundef i64 @_ZNK4llvm3MD59MD5Result3lowEv(ptr noundef nonnull align 1 dereferenceable(16) %6)
  ret i64 %13
}

; Function Attrs: mustprogress nounwind uwtable
define linkonce_odr hidden noundef i64 @_ZN4llvm16IndexedInstrProf11ComputeHashENS0_5HashTENS_9StringRefE(i32 noundef %0, ptr %1, i64 %2) #0 comdat {
  %4 = alloca %"class.llvm::StringRef", align 8
  %5 = alloca i32, align 4
  %6 = alloca %"class.llvm::StringRef", align 8
  %7 = getelementptr inbounds nuw { ptr, i64 }, ptr %4, i32 0, i32 0
  store ptr %1, ptr %7, align 8
  %8 = getelementptr inbounds nuw { ptr, i64 }, ptr %4, i32 0, i32 1
  store i64 %2, ptr %8, align 8
  store i32 %0, ptr %5, align 4
  %9 = load i32, ptr %5, align 4
  switch i32 %9, label %16 [
    i32 0, label %10
  ]

10:                                               ; preds = %3
  call void @llvm.memcpy.p0.p0.i64(ptr align 8 %6, ptr align 8 %4, i64 16, i1 false)
  %11 = getelementptr inbounds nuw { ptr, i64 }, ptr %6, i32 0, i32 0
  %12 = load ptr, ptr %11, align 8
  %13 = getelementptr inbounds nuw { ptr, i64 }, ptr %6, i32 0, i32 1
  %14 = load i64, ptr %13, align 8
  %15 = call noundef i64 @_ZN4llvm7MD5HashENS_9StringRefE(ptr %12, i64 %14)
  ret i64 %15

16:                                               ; preds = %3
  unreachable
}

; Function Attrs: mustprogress nounwind uwtable
define dso_local noundef i64 @_ZN4llvm20InstrProfLookupTrait11ComputeHashENS_9StringRefE(ptr noundef nonnull align 8 dereferenceable(36) %0, ptr %1, i64 %2) #0 align 2 {
  %4 = alloca %"class.llvm::StringRef", align 8
  %5 = alloca ptr, align 8
  %6 = alloca %"class.llvm::StringRef", align 8
  %7 = getelementptr inbounds nuw { ptr, i64 }, ptr %4, i32 0, i32 0
  store ptr %1, ptr %7, align 8
  %8 = getelementptr inbounds nuw { ptr, i64 }, ptr %4, i32 0, i32 1
  store i64 %2, ptr %8, align 8
  store ptr %0, ptr %5, align 8
  %9 = load ptr, ptr %5, align 8
  %10 = getelementptr inbounds nuw %"class.llvm::InstrProfLookupTrait", ptr %9, i32 0, i32 1
  %11 = load i32, ptr %10, align 8
  call void @llvm.memcpy.p0.p0.i64(ptr align 8 %6, ptr align 8 %4, i64 16, i1 false)
  %12 = getelementptr inbounds nuw { ptr, i64 }, ptr %6, i32 0, i32 0
  %13 = load ptr, ptr %12, align 8
  %14 = getelementptr inbounds nuw { ptr, i64 }, ptr %6, i32 0, i32 1
  %15 = load i64, ptr %14, align 8
  %16 = call noundef i64 @_ZN4llvm16IndexedInstrProf11ComputeHashENS0_5HashTENS_9StringRefE(i32 noundef %11, ptr %13, i64 %15)
  ret i64 %16
}