; Function Attrs: mustprogress nounwind uwtable
define dso_local noundef i64 @_ZN4llvm20InstrProfLookupTrait11ComputeHashENS_9StringRefE(ptr nocapture noundef nonnull readonly align 8 dereferenceable(36) %0, ptr %1, i64 %2) local_unnamed_addr #0 align 2 {
  %4 = alloca %"class.llvm::MD5", align 4
  %5 = alloca %"struct.llvm::MD5::MD5Result", align 8
  call void @llvm.lifetime.start.p0(i64 152, ptr nonnull %4)
  call void @llvm.lifetime.start.p0(i64 16, ptr nonnull %5)
  call void @_ZN4llvm3MD5C1Ev(ptr noundef nonnull align 4 dereferenceable(152) %4) #21
  call void @_ZN4llvm3MD56updateENS_9StringRefE(ptr noundef nonnull align 4 dereferenceable(152) %4, ptr %1, i64 %2) #21
  call void @_ZN4llvm3MD55finalERNS0_9MD5ResultE(ptr noundef nonnull align 4 dereferenceable(152) %4, ptr noundef nonnull align 1 dereferenceable(16) %5) #21
  call void @llvm.assume(i1 true) [ "align"(ptr %5, i64 1) ]
  %.0.copyload.i.i.i.i.i.i.i = load i64, ptr %5, align 8
  call void @llvm.lifetime.end.p0(i64 152, ptr nonnull %4)
  call void @llvm.lifetime.end.p0(i64 16, ptr nonnull %5)
  ret i64 %.0.copyload.i.i.i.i.i.i.i
}